; Function Attrs: nounwind uwtable
define internal ptr @_codecs_utf_16_encode(ptr readnone captures(none) %0, ptr noundef readonly captures(none) %1, i64 noundef %2) #0 {
  %4 = alloca i64, align 8
  %5 = add i64 %2, -1
  %or.cond = icmp ult i64 %5, 3
  br i1 %or.cond, label %8, label %6

6:                                                ; preds = %3
  %7 = tail call i32 @_PyArg_CheckPositional(ptr noundef nonnull @.str.12, i64 noundef %2, i64 noundef 1, i64 noundef 3) #5
  %.not = icmp eq i32 %7, 0
  br i1 %.not, label %_codecs_utf_16_encode_impl.exit, label %8

8:                                                ; preds = %3, %6
  %9 = load ptr, ptr %1, align 8, !tbaa !22
  %10 = getelementptr i8, ptr %9, i64 8
  %.val = load ptr, ptr %10, align 8, !tbaa !4
  %11 = getelementptr i8, ptr %.val, i64 168
  %.val38 = load i64, ptr %11, align 8, !tbaa !10
  %12 = and i64 %.val38, 268435456
  %.not32 = icmp eq i64 %12, 0
  br i1 %.not32, label %13, label %14

13:                                               ; preds = %8
  tail call void @_PyArg_BadArgument(ptr noundef nonnull @.str.12, ptr noundef nonnull @.str.50, ptr noundef nonnull @.str.43, ptr noundef nonnull %9) #5
  br label %_codecs_utf_16_encode_impl.exit

14:                                               ; preds = %8
  %15 = icmp slt i64 %2, 2
  br i1 %15, label %43, label %16

16:                                               ; preds = %14
  %17 = getelementptr i8, ptr %1, i64 8
  %18 = load ptr, ptr %17, align 8, !tbaa !22
  %19 = icmp eq ptr %18, @_Py_NoneStruct
  br i1 %19, label %34, label %20

20:                                               ; preds = %16
  %21 = getelementptr i8, ptr %18, i64 8
  %.val37 = load ptr, ptr %21, align 8, !tbaa !4
  %22 = getelementptr i8, ptr %.val37, i64 168
  %.val39 = load i64, ptr %22, align 8, !tbaa !10
  %23 = and i64 %.val39, 268435456
  %.not33 = icmp eq i64 %23, 0
  br i1 %.not33, label %33, label %24

24:                                               ; preds = %20
  call void @llvm.lifetime.start.p0(i64 8, ptr nonnull %4) #5
  %25 = call ptr @PyUnicode_AsUTF8AndSize(ptr noundef %18, ptr noundef nonnull %4) #5
  %26 = icmp eq ptr %25, null
  br i1 %26, label %.thread, label %27

27:                                               ; preds = %24
  %28 = call i64 @strlen(ptr noundef nonnull dereferenceable(1) %25) #6
  %29 = load i64, ptr %4, align 8, !tbaa !21
  %.not34 = icmp eq i64 %28, %29
  br i1 %.not34, label %32, label %30

30:                                               ; preds = %27
  %31 = load ptr, ptr @PyExc_ValueError, align 8, !tbaa !22
  call void @PyErr_SetString(ptr noundef %31, ptr noundef nonnull @.str.44) #5
  br label %.thread

.thread:                                          ; preds = %30, %24
  call void @llvm.lifetime.end.p0(i64 8, ptr nonnull %4) #5
  br label %_codecs_utf_16_encode_impl.exit

32:                                               ; preds = %27
  call void @llvm.lifetime.end.p0(i64 8, ptr nonnull %4) #5
  br label %34

33:                                               ; preds = %20
  tail call void @_PyArg_BadArgument(ptr noundef nonnull @.str.12, ptr noundef nonnull @.str.52, ptr noundef nonnull @.str.53, ptr noundef %18) #5
  br label %_codecs_utf_16_encode_impl.exit

34:                                               ; preds = %32, %16
  %.1 = phi ptr [ %25, %32 ], [ null, %16 ]
  %35 = icmp eq i64 %2, 2
  br i1 %35, label %43, label %36

36:                                               ; preds = %34
  %37 = getelementptr i8, ptr %1, i64 16
  %38 = load ptr, ptr %37, align 8, !tbaa !22
  %39 = call i32 @PyLong_AsInt(ptr noundef %38) #5
  %40 = icmp eq i32 %39, -1
  br i1 %40, label %41, label %43

41:                                               ; preds = %36
  %42 = call ptr @PyErr_Occurred() #5
  %.not35 = icmp eq ptr %42, null
  br i1 %.not35, label %43, label %_codecs_utf_16_encode_impl.exit

43:                                               ; preds = %36, %41, %34, %14
  %.024 = phi ptr [ null, %14 ], [ %.1, %34 ], [ %.1, %41 ], [ %.1, %36 ]
  %.023 = phi i32 [ 0, %14 ], [ 0, %34 ], [ -1, %41 ], [ %39, %36 ]
  %44 = call ptr @_PyUnicode_EncodeUTF16(ptr noundef nonnull %9, ptr noundef %.024, i32 noundef %.023) #5
  %45 = icmp eq ptr %44, null
  br i1 %45, label %_codecs_utf_16_encode_impl.exit, label %46

46:                                               ; preds = %43
  %47 = getelementptr i8, ptr %9, i64 16
  %.val.i = load i64, ptr %47, align 8, !tbaa !33
  %48 = call ptr (ptr, ...) @Py_BuildValue(ptr noundef nonnull @.str.55, ptr noundef nonnull %44, i64 noundef %.val.i) #5
  br label %_codecs_utf_16_encode_impl.exit

_codecs_utf_16_encode_impl.exit:                  ; preds = %46, %43, %.thread, %13, %33, %6, %41
  %.026 = phi ptr [ null, %41 ], [ null, %33 ], [ null, %13 ], [ null, %6 ], [ null, %.thread ], [ %48, %46 ], [ null, %43 ]
  ret ptr %.026
}